target datalayout = "e-m:e-p270:32:32-p271:32:32-p272:64:64-i64:64-i128:128-f80:128-n8:16:32:64-S128"
target triple = "x86_64-pc-linux-gnu"

%struct.lua_State = type { ptr, i8, i8, i8, i8, i16, %union.StkIdRel, ptr, ptr, %union.StkIdRel, %union.StkIdRel, ptr, %union.StkIdRel, ptr, ptr, ptr, %struct.CallInfo, ptr, i64, i32, i32, i32, i32, i32, %struct.anon.3 }
%union.StkIdRel = type { ptr }
%struct.CallInfo = type { %union.StkIdRel, %union.StkIdRel, ptr, ptr, %union.anon, %union.anon.2, i32 }
%union.anon = type { %struct.anon.1 }
%struct.anon.1 = type { ptr, i64, i64 }
%union.anon.2 = type { i32 }
%struct.anon.3 = type { i32, i32 }

; Function Attrs: inlinehint nounwind uwtable
define internal void @ccall(ptr noundef %0, ptr noundef %1, i32 noundef %2, i32 noundef %3) #9 {
  %5 = alloca ptr, align 8
  %6 = alloca ptr, align 8
  %7 = alloca i32, align 4
  %8 = alloca i32, align 4
  %9 = alloca ptr, align 8
  %10 = alloca i64, align 8
  store ptr %0, ptr %5, align 8, !tbaa !4
  store ptr %1, ptr %6, align 8, !tbaa !11
  store i32 %2, ptr %7, align 4, !tbaa !9
  store i32 %3, ptr %8, align 4, !tbaa !9
  call void @llvm.lifetime.start.p0(i64 8, ptr %9) #11
  %11 = load i32, ptr %8, align 4, !tbaa !9
  %12 = load ptr, ptr %5, align 8, !tbaa !4
  %13 = getelementptr inbounds nuw %struct.lua_State, ptr %12, i32 0, i32 19
  %14 = load i32, ptr %13, align 8, !tbaa !48
  %15 = add i32 %14, %11
  store i32 %15, ptr %13, align 8, !tbaa !48
  %16 = load ptr, ptr %5, align 8, !tbaa !4
  %17 = getelementptr inbounds nuw %struct.lua_State, ptr %16, i32 0, i32 19
  %18 = load i32, ptr %17, align 8, !tbaa !48
  %19 = and i32 %18, 65535
  %20 = icmp uge i32 %19, 200
  %21 = zext i1 %20 to i32
  %22 = icmp ne i32 %21, 0
  %23 = zext i1 %22 to i32
  %24 = sext i32 %23 to i64
  %25 = call i64 @llvm.expect.i64(i64 %24, i64 0)
  %26 = icmp ne i64 %25, 0
  br i1 %26, label %27, label %63

27:                                               ; preds = %4
  %28 = load ptr, ptr %5, align 8, !tbaa !4
  %29 = getelementptr inbounds nuw %struct.lua_State, ptr %28, i32 0, i32 9
  %30 = load ptr, ptr %29, align 8, !tbaa !34
  %31 = load ptr, ptr %5, align 8, !tbaa !4
  %32 = getelementptr inbounds nuw %struct.lua_State, ptr %31, i32 0, i32 6
  %33 = load ptr, ptr %32, align 8, !tbaa !34
  %34 = ptrtoint ptr %30 to i64
  %35 = ptrtoint ptr %33 to i64
  %36 = sub i64 %34, %35
  %37 = sdiv exact i64 %36, 16
  %38 = icmp sle i64 %37, 0
  %39 = zext i1 %38 to i32
  %40 = icmp ne i32 %39, 0
  %41 = zext i1 %40 to i32
  %42 = sext i32 %41 to i64
  %43 = call i64 @llvm.expect.i64(i64 %42, i64 0)
  %44 = icmp ne i64 %43, 0
  br i1 %44, label %45, label %60

45:                                               ; preds = %27
  call void @llvm.lifetime.start.p0(i64 8, ptr %10) #11
  %46 = load ptr, ptr %6, align 8, !tbaa !11
  %47 = load ptr, ptr %5, align 8, !tbaa !4
  %48 = getelementptr inbounds nuw %struct.lua_State, ptr %47, i32 0, i32 10
  %49 = load ptr, ptr %48, align 8, !tbaa !34
  %50 = ptrtoint ptr %46 to i64
  %51 = ptrtoint ptr %49 to i64
  %52 = sub i64 %50, %51
  store i64 %52, ptr %10, align 8, !tbaa !59
  %53 = load ptr, ptr %5, align 8, !tbaa !4
  %54 = call i32 @luaD_growstack(ptr noundef %53, i32 noundef 0, i32 noundef 1)
  %55 = load ptr, ptr %5, align 8, !tbaa !4
  %56 = getelementptr inbounds nuw %struct.lua_State, ptr %55, i32 0, i32 10
  %57 = load ptr, ptr %56, align 8, !tbaa !34
  %58 = load i64, ptr %10, align 8, !tbaa !59
  %59 = getelementptr inbounds i8, ptr %57, i64 %58
  store ptr %59, ptr %6, align 8, !tbaa !11
  call void @llvm.lifetime.end.p0(i64 8, ptr %10) #11
  br label %61

60:                                               ; preds = %27
  br label %61

61:                                               ; preds = %60, %45
  %62 = load ptr, ptr %5, align 8, !tbaa !4
  call void @luaE_checkcstack(ptr noundef %62)
  br label %63

63:                                               ; preds = %61, %4
  %64 = load ptr, ptr %5, align 8, !tbaa !4
  %65 = load ptr, ptr %6, align 8, !tbaa !11
  %66 = load i32, ptr %7, align 4, !tbaa !9
  %67 = call ptr @luaD_precall(ptr noundef %64, ptr noundef %65, i32 noundef %66)
  store ptr %67, ptr %9, align 8, !tbaa !54
  %68 = icmp ne ptr %67, null
  br i1 %68, label %69, label %76

69:                                               ; preds = %63
  %70 = load ptr, ptr %9, align 8, !tbaa !54
  %71 = getelementptr inbounds nuw %struct.CallInfo, ptr %70, i32 0, i32 6
  %72 = load i32, ptr %71, align 4, !tbaa !56
  %73 = or i32 %72, 65536
  store i32 %73, ptr %71, align 4, !tbaa !56
  %74 = load ptr, ptr %5, align 8, !tbaa !4
  %75 = load ptr, ptr %9, align 8, !tbaa !54
  call void @luaV_execute(ptr noundef %74, ptr noundef %75)
  br label %76

76:                                               ; preds = %69, %63
  %77 = load i32, ptr %8, align 4, !tbaa !9
  %78 = load ptr, ptr %5, align 8, !tbaa !4
  %79 = getelementptr inbounds nuw %struct.lua_State, ptr %78, i32 0, i32 19
  %80 = load i32, ptr %79, align 8, !tbaa !48
  %81 = sub i32 %80, %77
  store i32 %81, ptr %79, align 8, !tbaa !48
  call void @llvm.lifetime.end.p0(i64 8, ptr %9) #11
  ret void
}

; Function Attrs: nounwind uwtable
define hidden void @luaD_call(ptr noundef %0, ptr noundef %1, i32 noundef %2) #0 {
  %4 = alloca ptr, align 8
  %5 = alloca ptr, align 8
  %6 = alloca i32, align 4
  store ptr %0, ptr %4, align 8, !tbaa !4
  store ptr %1, ptr %5, align 8, !tbaa !11
  store i32 %2, ptr %6, align 4, !tbaa !9
  %7 = load ptr, ptr %4, align 8, !tbaa !4
  %8 = load ptr, ptr %5, align 8, !tbaa !11
  %9 = load i32, ptr %6, align 4, !tbaa !9
  call void @ccall(ptr noundef %7, ptr noundef %8, i32 noundef %9, i32 noundef 1)
  ret void
}